target datalayout = "e-m:e-p270:32:32-p271:32:32-p272:64:64-i64:64-i128:128-f80:128-n8:16:32:64-S128"
target triple = "x86_64-pc-linux-gnu"

%struct.WasmEdge_ValType = type { [8 x i8] }
%"class.WasmEdge::ValType" = type { %union.anon }
%union.anon = type { %struct.anon }
%struct.anon = type { i8, i8, i8, i8, i32 }
%"struct.std::array.750" = type { [8 x i8] }
%struct.WasmEdge_Limit = type { i8, i8, i32, i32 }
%"class.WasmEdge::AST::TableType" = type { %"class.WasmEdge::ValType", %"class.WasmEdge::AST::Limit" }
%"class.WasmEdge::AST::Limit" = type { i8, i32, i32 }

; Function Attrs: mustprogress nounwind uwtable
define linkonce_odr hidden noundef ptr @_ZNSt11__copy_moveILb0ELb1ESt26random_access_iterator_tagE8__copy_mIhEEPT_PKS3_S6_S4_(ptr noundef %0, ptr noundef %1, ptr noundef %2) #0 comdat align 2 {
  %4 = alloca ptr, align 8
  %5 = alloca ptr, align 8
  %6 = alloca ptr, align 8
  %7 = alloca i64, align 8
  store ptr %0, ptr %4, align 8
  store ptr %1, ptr %5, align 8
  store ptr %2, ptr %6, align 8
  %8 = load ptr, ptr %5, align 8
  %9 = load ptr, ptr %4, align 8
  %10 = ptrtoint ptr %8 to i64
  %11 = ptrtoint ptr %9 to i64
  %12 = sub i64 %10, %11
  store i64 %12, ptr %7, align 8
  %13 = load i64, ptr %7, align 8
  %14 = icmp ne i64 %13, 0
  br i1 %14, label %15, label %20

15:                                               ; preds = %3
  %16 = load ptr, ptr %6, align 8
  %17 = load ptr, ptr %4, align 8
  %18 = load i64, ptr %7, align 8
  %19 = mul i64 1, %18
  call void @llvm.memmove.p0.p0.i64(ptr align 1 %16, ptr align 1 %17, i64 %19, i1 false)
  br label %20

20:                                               ; preds = %15, %3
  %21 = load ptr, ptr %6, align 8
  %22 = load i64, ptr %7, align 8
  %23 = getelementptr inbounds i8, ptr %21, i64 %22
  ret ptr %23
}

; Function Attrs: mustprogress uwtable
define linkonce_odr noundef ptr @_ZSt14__copy_move_a2ILb0EPKhPhET1_T0_S4_S3_(ptr noundef %0, ptr noundef %1, ptr noundef %2) #1 comdat {
  %4 = alloca ptr, align 8
  %5 = alloca ptr, align 8
  %6 = alloca ptr, align 8
  store ptr %0, ptr %4, align 8
  store ptr %1, ptr %5, align 8
  store ptr %2, ptr %6, align 8
  %7 = load ptr, ptr %4, align 8
  %8 = load ptr, ptr %5, align 8
  %9 = load ptr, ptr %6, align 8
  %10 = call noundef ptr @_ZNSt11__copy_moveILb0ELb1ESt26random_access_iterator_tagE8__copy_mIhEEPT_PKS3_S6_S4_(ptr noundef %7, ptr noundef %8, ptr noundef %9)
  ret ptr %10
}

; Function Attrs: mustprogress nounwind uwtable
define linkonce_odr noundef ptr @_ZSt12__niter_wrapIPhET_RKS1_S1_(ptr noundef nonnull align 8 dereferenceable(8) %0, ptr noundef %1) #0 comdat {
  %3 = alloca ptr, align 8
  %4 = alloca ptr, align 8
  store ptr %0, ptr %3, align 8
  store ptr %1, ptr %4, align 8
  %5 = load ptr, ptr %4, align 8
  ret ptr %5
}

; Function Attrs: mustprogress uwtable
define linkonce_odr noundef ptr @_ZSt14__copy_move_a1ILb0EPKhPhET1_T0_S4_S3_(ptr noundef %0, ptr noundef %1, ptr noundef %2) #1 comdat {
  %4 = alloca ptr, align 8
  %5 = alloca ptr, align 8
  %6 = alloca ptr, align 8
  store ptr %0, ptr %4, align 8
  store ptr %1, ptr %5, align 8
  store ptr %2, ptr %6, align 8
  %7 = load ptr, ptr %4, align 8
  %8 = load ptr, ptr %5, align 8
  %9 = load ptr, ptr %6, align 8
  %10 = call noundef ptr @_ZSt14__copy_move_a2ILb0EPKhPhET1_T0_S4_S3_(ptr noundef %7, ptr noundef %8, ptr noundef %9)
  ret ptr %10
}

; Function Attrs: mustprogress nounwind uwtable
define linkonce_odr noundef ptr @_ZSt12__niter_baseIPhET_S1_(ptr noundef %0) #0 comdat {
  %2 = alloca ptr, align 8
  store ptr %0, ptr %2, align 8
  %3 = load ptr, ptr %2, align 8
  ret ptr %3
}

; Function Attrs: mustprogress nounwind uwtable
define linkonce_odr noundef ptr @_ZSt12__niter_baseIPKhET_S2_(ptr noundef %0) #0 comdat {
  %2 = alloca ptr, align 8
  store ptr %0, ptr %2, align 8
  %3 = load ptr, ptr %2, align 8
  ret ptr %3
}

; Function Attrs: mustprogress uwtable
define linkonce_odr noundef ptr @_ZSt13__copy_move_aILb0EPKhPhET1_T0_S4_S3_(ptr noundef %0, ptr noundef %1, ptr noundef %2) #1 comdat {
  %4 = alloca ptr, align 8
  %5 = alloca ptr, align 8
  %6 = alloca ptr, align 8
  store ptr %0, ptr %4, align 8
  store ptr %1, ptr %5, align 8
  store ptr %2, ptr %6, align 8
  %7 = load ptr, ptr %4, align 8
  %8 = call noundef ptr @_ZSt12__niter_baseIPKhET_S2_(ptr noundef %7) #18
  %9 = load ptr, ptr %5, align 8
  %10 = call noundef ptr @_ZSt12__niter_baseIPKhET_S2_(ptr noundef %9) #18
  %11 = load ptr, ptr %6, align 8
  %12 = call noundef ptr @_ZSt12__niter_baseIPhET_S1_(ptr noundef %11) #18
  %13 = call noundef ptr @_ZSt14__copy_move_a1ILb0EPKhPhET1_T0_S4_S3_(ptr noundef %8, ptr noundef %10, ptr noundef %12)
  %14 = call noundef ptr @_ZSt12__niter_wrapIPhET_RKS1_S1_(ptr noundef nonnull align 8 dereferenceable(8) %6, ptr noundef %13)
  ret ptr %14
}

; Function Attrs: mustprogress nounwind uwtable
define linkonce_odr noundef ptr @_ZSt12__miter_baseIPKhET_S2_(ptr noundef %0) #0 comdat {
  %2 = alloca ptr, align 8
  store ptr %0, ptr %2, align 8
  %3 = load ptr, ptr %2, align 8
  ret ptr %3
}

; Function Attrs: mustprogress nounwind uwtable
define linkonce_odr hidden noundef ptr @_ZNKSt5arrayIhLm8EE4dataEv(ptr noundef nonnull align 1 dereferenceable(8) %0) #0 comdat align 2 {
  %2 = alloca ptr, align 8
  store ptr %0, ptr %2, align 8
  %3 = load ptr, ptr %2, align 8
  %4 = getelementptr inbounds %"struct.std::array.750", ptr %3, i32 0, i32 0
  %5 = call noundef ptr @_ZNSt14__array_traitsIhLm8EE6_S_ptrERA8_Kh(ptr noundef nonnull align 1 dereferenceable(8) %4) #18
  ret ptr %5
}

; Function Attrs: mustprogress uwtable
define linkonce_odr noundef ptr @_ZSt4copyIPKhPhET0_T_S4_S3_(ptr noundef %0, ptr noundef %1, ptr noundef %2) #1 comdat {
  %4 = alloca ptr, align 8
  %5 = alloca ptr, align 8
  %6 = alloca ptr, align 8
  store ptr %0, ptr %4, align 8
  store ptr %1, ptr %5, align 8
  store ptr %2, ptr %6, align 8
  %7 = load ptr, ptr %4, align 8
  %8 = call noundef ptr @_ZSt12__miter_baseIPKhET_S2_(ptr noundef %7)
  %9 = load ptr, ptr %5, align 8
  %10 = call noundef ptr @_ZSt12__miter_baseIPKhET_S2_(ptr noundef %9)
  %11 = load ptr, ptr %6, align 8
  %12 = call noundef ptr @_ZSt13__copy_move_aILb0EPKhPhET1_T0_S4_S3_(ptr noundef %8, ptr noundef %10, ptr noundef %11)
  ret ptr %12
}

; Function Attrs: mustprogress nounwind uwtable
define linkonce_odr hidden noundef ptr @_ZNSt14__array_traitsIhLm8EE6_S_ptrERA8_Kh(ptr noundef nonnull align 1 dereferenceable(8) %0) #0 comdat align 2 {
  %2 = alloca ptr, align 8
  store ptr %0, ptr %2, align 8
  %3 = load ptr, ptr %2, align 8
  %4 = getelementptr inbounds [8 x i8], ptr %3, i64 0, i64 0
  ret ptr %4
}

; Function Attrs: mustprogress nounwind uwtable
define linkonce_odr hidden noundef ptr @_ZNKSt5arrayIhLm8EE6cbeginEv(ptr noundef nonnull align 1 dereferenceable(8) %0) #0 comdat align 2 {
  %2 = alloca ptr, align 8
  store ptr %0, ptr %2, align 8
  %3 = load ptr, ptr %2, align 8
  %4 = call noundef ptr @_ZNKSt5arrayIhLm8EE4dataEv(ptr noundef nonnull align 1 dereferenceable(8) %3) #18
  ret ptr %4
}

; Function Attrs: mustprogress uwtable
define linkonce_odr noundef ptr @_ZSt8__copy_nIPKhiPhET1_T_T0_S3_St26random_access_iterator_tag(ptr noundef %0, i32 noundef %1, ptr noundef %2) #1 comdat {
  %4 = alloca ptr, align 8
  %5 = alloca i32, align 4
  %6 = alloca ptr, align 8
  store ptr %0, ptr %4, align 8
  store i32 %1, ptr %5, align 4
  store ptr %2, ptr %6, align 8
  %7 = load ptr, ptr %4, align 8
  %8 = load ptr, ptr %4, align 8
  %9 = load i32, ptr %5, align 4
  %10 = sext i32 %9 to i64
  %11 = getelementptr inbounds i8, ptr %8, i64 %10
  %12 = load ptr, ptr %6, align 8
  %13 = call noundef ptr @_ZSt4copyIPKhPhET0_T_S4_S3_(ptr noundef %7, ptr noundef %11, ptr noundef %12)
  ret ptr %13
}

; Function Attrs: mustprogress nounwind uwtable
define linkonce_odr void @_ZSt19__iterator_categoryIPKhENSt15iterator_traitsIT_E17iterator_categoryERKS3_(ptr noundef nonnull align 8 dereferenceable(8) %0) #0 comdat {
  %2 = alloca ptr, align 8
  store ptr %0, ptr %2, align 8
  ret void
}

; Function Attrs: mustprogress nounwind uwtable
define linkonce_odr noundef i32 @_ZSt17__size_to_integeri(i32 noundef %0) #0 comdat {
  %2 = alloca i32, align 4
  store i32 %0, ptr %2, align 4
  %3 = load i32, ptr %2, align 4
  ret i32 %3
}

; Function Attrs: mustprogress nounwind willreturn memory(none) uwtable
define linkonce_odr hidden noundef ptr @_ZNSt5arrayIhLm8EE4dataEv(ptr noundef nonnull align 1 dereferenceable(8) %0) #11 comdat align 2 {
  %2 = alloca ptr, align 8
  store ptr %0, ptr %2, align 8
  %3 = load ptr, ptr %2, align 8
  %4 = getelementptr inbounds %"struct.std::array.750", ptr %3, i32 0, i32 0
  %5 = call noundef ptr @_ZNSt14__array_traitsIhLm8EE6_S_ptrERA8_Kh(ptr noundef nonnull align 1 dereferenceable(8) %4) #18
  ret ptr %5
}

; Function Attrs: mustprogress nounwind uwtable
define linkonce_odr hidden void @_ZN8WasmEdge3AST5LimitC2Ej(ptr noundef nonnull align 4 dereferenceable(12) %0, i32 noundef %1) unnamed_addr #0 comdat align 2 {
  %3 = alloca ptr, align 8
  %4 = alloca i32, align 4
  store ptr %0, ptr %3, align 8
  store i32 %1, ptr %4, align 4
  %5 = load ptr, ptr %3, align 8
  %6 = getelementptr inbounds %"class.WasmEdge::AST::Limit", ptr %5, i32 0, i32 0
  store i8 0, ptr %6, align 4
  %7 = getelementptr inbounds %"class.WasmEdge::AST::Limit", ptr %5, i32 0, i32 1
  %8 = load i32, ptr %4, align 4
  store i32 %8, ptr %7, align 4
  %9 = getelementptr inbounds %"class.WasmEdge::AST::Limit", ptr %5, i32 0, i32 2
  %10 = load i32, ptr %4, align 4
  store i32 %10, ptr %9, align 4
  ret void
}

; Function Attrs: mustprogress nounwind uwtable
define linkonce_odr hidden void @_ZN8WasmEdge3AST5LimitC2Ejjb(ptr noundef nonnull align 4 dereferenceable(12) %0, i32 noundef %1, i32 noundef %2, i1 noundef zeroext %3) unnamed_addr #0 comdat align 2 {
  %5 = alloca ptr, align 8
  %6 = alloca i32, align 4
  %7 = alloca i32, align 4
  %8 = alloca i8, align 1
  store ptr %0, ptr %5, align 8
  store i32 %1, ptr %6, align 4
  store i32 %2, ptr %7, align 4
  %9 = zext i1 %3 to i8
  store i8 %9, ptr %8, align 1
  %10 = load ptr, ptr %5, align 8
  %11 = getelementptr inbounds %"class.WasmEdge::AST::Limit", ptr %10, i32 0, i32 1
  %12 = load i32, ptr %6, align 4
  store i32 %12, ptr %11, align 4
  %13 = getelementptr inbounds %"class.WasmEdge::AST::Limit", ptr %10, i32 0, i32 2
  %14 = load i32, ptr %7, align 4
  store i32 %14, ptr %13, align 4
  %15 = load i8, ptr %8, align 1
  %16 = trunc i8 %15 to i1
  br i1 %16, label %17, label %19

17:                                               ; preds = %4
  %18 = getelementptr inbounds %"class.WasmEdge::AST::Limit", ptr %10, i32 0, i32 0
  store i8 3, ptr %18, align 4
  br label %21

19:                                               ; preds = %4
  %20 = getelementptr inbounds %"class.WasmEdge::AST::Limit", ptr %10, i32 0, i32 0
  store i8 1, ptr %20, align 4
  br label %21

21:                                               ; preds = %19, %17
  ret void
}

; Function Attrs: noreturn nounwind uwtable
define linkonce_odr hidden void @__clang_call_terminate(ptr noundef %0) #10 comdat {
  %2 = call ptr @__cxa_begin_catch(ptr %0) #18
  call void @_ZSt9terminatev() #19
  unreachable
}

; Function Attrs: mustprogress nounwind uwtable
define linkonce_odr hidden void @_ZN8WasmEdge7ValTypeC2ESt5arrayIhLm8EE(ptr noundef nonnull align 4 dereferenceable(8) %0, i64 %1) unnamed_addr #0 comdat align 2 personality ptr @__gxx_personality_v0 {
  %3 = alloca %"struct.std::array.750", align 1
  %4 = alloca ptr, align 8
  %5 = getelementptr inbounds %"struct.std::array.750", ptr %3, i32 0, i32 0
  store i64 %1, ptr %5, align 1
  store ptr %0, ptr %4, align 8
  %6 = load ptr, ptr %4, align 8
  %7 = call noundef ptr @_ZNKSt5arrayIhLm8EE6cbeginEv(ptr noundef nonnull align 1 dereferenceable(8) %3) #18
  %8 = getelementptr inbounds %"class.WasmEdge::ValType", ptr %6, i32 0, i32 0
  %9 = getelementptr inbounds [8 x i8], ptr %8, i64 0, i64 0
  %10 = invoke noundef ptr @_ZSt6copy_nIPKhiPhET1_T_T0_S3_(ptr noundef %7, i32 noundef 8, ptr noundef %9)
          to label %11 unwind label %12

11:                                               ; preds = %2
  ret void

12:                                               ; preds = %2
  %13 = landingpad { ptr, i32 }
          catch ptr null
  %14 = extractvalue { ptr, i32 } %13, 0
  call void @__clang_call_terminate(ptr %14) #19
  unreachable
}

; Function Attrs: mustprogress uwtable
define linkonce_odr noundef ptr @_ZSt6copy_nIPKhiPhET1_T_T0_S3_(ptr noundef %0, i32 noundef %1, ptr noundef %2) #1 comdat {
  %4 = alloca ptr, align 8
  %5 = alloca ptr, align 8
  %6 = alloca i32, align 4
  %7 = alloca ptr, align 8
  %8 = alloca i32, align 4
  store ptr %0, ptr %5, align 8
  store i32 %1, ptr %6, align 4
  store ptr %2, ptr %7, align 8
  %9 = load i32, ptr %6, align 4
  %10 = call noundef i32 @_ZSt17__size_to_integeri(i32 noundef %9)
  store i32 %10, ptr %8, align 4
  %11 = load i32, ptr %8, align 4
  %12 = icmp sle i32 %11, 0
  br i1 %12, label %13, label %15

13:                                               ; preds = %3
  %14 = load ptr, ptr %7, align 8
  store ptr %14, ptr %4, align 8
  br label %20

15:                                               ; preds = %3
  %16 = load ptr, ptr %5, align 8
  %17 = load i32, ptr %8, align 4
  %18 = load ptr, ptr %7, align 8
  call void @_ZSt19__iterator_categoryIPKhENSt15iterator_traitsIT_E17iterator_categoryERKS3_(ptr noundef nonnull align 8 dereferenceable(8) %5)
  %19 = call noundef ptr @_ZSt8__copy_nIPKhiPhET1_T_T0_S3_St26random_access_iterator_tag(ptr noundef %16, i32 noundef %17, ptr noundef %18)
  store ptr %19, ptr %4, align 8
  br label %20

20:                                               ; preds = %15, %13
  %21 = load ptr, ptr %4, align 8
  ret ptr %21
}

; Function Attrs: mustprogress nounwind willreturn memory(none) uwtable
define linkonce_odr hidden noundef ptr @_ZNSt5arrayIhLm8EE5beginEv(ptr noundef nonnull align 1 dereferenceable(8) %0) #11 comdat align 2 {
  %2 = alloca ptr, align 8
  store ptr %0, ptr %2, align 8
  %3 = load ptr, ptr %2, align 8
  %4 = call noundef ptr @_ZNSt5arrayIhLm8EE4dataEv(ptr noundef nonnull align 1 dereferenceable(8) %3) #20
  ret ptr %4
}

; Function Attrs: mustprogress nounwind uwtable
define linkonce_odr hidden void @_ZN8WasmEdge3AST9TableTypeC2ERKNS_7ValTypeEj(ptr noundef nonnull align 4 dereferenceable(20) %0, ptr noundef nonnull align 4 dereferenceable(8) %1, i32 noundef %2) unnamed_addr #0 comdat align 2 {
  %4 = alloca ptr, align 8
  %5 = alloca ptr, align 8
  %6 = alloca i32, align 4
  store ptr %0, ptr %4, align 8
  store ptr %1, ptr %5, align 8
  store i32 %2, ptr %6, align 4
  %7 = load ptr, ptr %4, align 8
  %8 = getelementptr inbounds %"class.WasmEdge::AST::TableType", ptr %7, i32 0, i32 0
  %9 = load ptr, ptr %5, align 8
  call void @llvm.memcpy.p0.p0.i64(ptr align 4 %8, ptr align 4 %9, i64 8, i1 false)
  %10 = getelementptr inbounds %"class.WasmEdge::AST::TableType", ptr %7, i32 0, i32 1
  %11 = load i32, ptr %6, align 4
  call void @_ZN8WasmEdge3AST5LimitC2Ej(ptr noundef nonnull align 4 dereferenceable(12) %10, i32 noundef %11) #18
  %12 = getelementptr inbounds %"class.WasmEdge::AST::TableType", ptr %7, i32 0, i32 0
  %13 = call noundef zeroext i1 @_ZNK8WasmEdge7ValType9isRefTypeEv(ptr noundef nonnull align 4 dereferenceable(8) %12) #18
  br i1 %13, label %14, label %15

14:                                               ; preds = %3
  br label %17

15:                                               ; preds = %3
  unreachable

16:                                               ; No predecessors!
  br label %17

17:                                               ; preds = %16, %14
  ret void
}

; Function Attrs: mustprogress nounwind uwtable
define internal noundef ptr @_ZN12_GLOBAL__N_112toTabTypeCxtEPN8WasmEdge3AST9TableTypeE(ptr noundef %0) #0 {
  %2 = alloca ptr, align 8
  store ptr %0, ptr %2, align 8
  %3 = load ptr, ptr %2, align 8
  ret ptr %3
}

; Function Attrs: mustprogress nounwind uwtable
define linkonce_odr hidden void @_ZN8WasmEdge3AST9TableTypeC2ERKNS_7ValTypeEjj(ptr noundef nonnull align 4 dereferenceable(20) %0, ptr noundef nonnull align 4 dereferenceable(8) %1, i32 noundef %2, i32 noundef %3) unnamed_addr #0 comdat align 2 {
  %5 = alloca ptr, align 8
  %6 = alloca ptr, align 8
  %7 = alloca i32, align 4
  %8 = alloca i32, align 4
  store ptr %0, ptr %5, align 8
  store ptr %1, ptr %6, align 8
  store i32 %2, ptr %7, align 4
  store i32 %3, ptr %8, align 4
  %9 = load ptr, ptr %5, align 8
  %10 = getelementptr inbounds %"class.WasmEdge::AST::TableType", ptr %9, i32 0, i32 0
  %11 = load ptr, ptr %6, align 8
  call void @llvm.memcpy.p0.p0.i64(ptr align 4 %10, ptr align 4 %11, i64 8, i1 false)
  %12 = getelementptr inbounds %"class.WasmEdge::AST::TableType", ptr %9, i32 0, i32 1
  %13 = load i32, ptr %7, align 4
  %14 = load i32, ptr %8, align 4
  call void @_ZN8WasmEdge3AST5LimitC2Ejjb(ptr noundef nonnull align 4 dereferenceable(12) %12, i32 noundef %13, i32 noundef %14, i1 noundef zeroext false) #18
  %15 = getelementptr inbounds %"class.WasmEdge::AST::TableType", ptr %9, i32 0, i32 0
  %16 = call noundef zeroext i1 @_ZNK8WasmEdge7ValType9isRefTypeEv(ptr noundef nonnull align 4 dereferenceable(8) %15) #18
  br i1 %16, label %17, label %18

17:                                               ; preds = %4
  br label %20

18:                                               ; preds = %4
  unreachable

19:                                               ; No predecessors!
  br label %20

20:                                               ; preds = %19, %17
  ret void
}

; Function Attrs: mustprogress nounwind uwtable
define linkonce_odr hidden noundef zeroext i1 @_ZNK8WasmEdge7ValType9isRefTypeEv(ptr noundef nonnull align 4 dereferenceable(8) %0) #0 comdat align 2 {
  %2 = alloca i1, align 1
  %3 = alloca ptr, align 8
  store ptr %0, ptr %3, align 8
  %4 = load ptr, ptr %3, align 8
  %5 = getelementptr inbounds %"class.WasmEdge::ValType", ptr %4, i32 0, i32 0
  %6 = getelementptr inbounds %struct.anon, ptr %5, i32 0, i32 2
  %7 = load i8, ptr %6, align 2
  switch i8 %7, label %9 [
    i8 100, label %8
    i8 99, label %8
  ]

8:                                                ; preds = %1, %1
  store i1 true, ptr %2, align 1
  br label %10

9:                                                ; preds = %1
  store i1 false, ptr %2, align 1
  br label %10

10:                                               ; preds = %9, %8
  %11 = load i1, ptr %2, align 1
  ret i1 %11
}

; Function Attrs: mustprogress nounwind uwtable
define internal i64 @_ZN12_GLOBAL__N_110genValTypeERK16WasmEdge_ValType(ptr noundef nonnull align 1 dereferenceable(8) %0) #0 personality ptr @__gxx_personality_v0 {
  %2 = alloca %"class.WasmEdge::ValType", align 4
  %3 = alloca ptr, align 8
  %4 = alloca %"struct.std::array.750", align 1
  %5 = alloca %"struct.std::array.750", align 1
  store ptr %0, ptr %3, align 8
  %6 = load ptr, ptr %3, align 8
  %7 = getelementptr inbounds %struct.WasmEdge_ValType, ptr %6, i32 0, i32 0
  %8 = getelementptr inbounds [8 x i8], ptr %7, i64 0, i64 0
  %9 = call noundef ptr @_ZNSt5arrayIhLm8EE5beginEv(ptr noundef nonnull align 1 dereferenceable(8) %4) #20
  %10 = invoke noundef ptr @_ZSt6copy_nIPKhiPhET1_T_T0_S3_(ptr noundef %8, i32 noundef 8, ptr noundef %9)
          to label %11 unwind label %17

11:                                               ; preds = %1
  call void @llvm.memcpy.p0.p0.i64(ptr align 1 %5, ptr align 1 %4, i64 8, i1 false)
  %12 = getelementptr inbounds %"struct.std::array.750", ptr %5, i32 0, i32 0
  %13 = load i64, ptr %12, align 1
  call void @_ZN8WasmEdge7ValTypeC2ESt5arrayIhLm8EE(ptr noundef nonnull align 4 dereferenceable(8) %2, i64 %13) #18
  %14 = getelementptr inbounds %"class.WasmEdge::ValType", ptr %2, i32 0, i32 0
  %15 = getelementptr inbounds %union.anon, ptr %14, i32 0, i32 0
  %16 = load i64, ptr %15, align 4
  ret i64 %16

17:                                               ; preds = %1
  %18 = landingpad { ptr, i32 }
          catch ptr null
  %19 = extractvalue { ptr, i32 } %18, 0
  call void @__clang_call_terminate(ptr %19) #19
  unreachable
}

; Function Attrs: mustprogress uwtable
define ptr @WasmEdge_TableTypeCreate(i64 %0, i64 %1, i32 %2) #1 {
  %4 = alloca ptr, align 8
  %5 = alloca %struct.WasmEdge_ValType, align 1
  %6 = alloca %struct.WasmEdge_Limit, align 4
  %7 = alloca { i64, i32 }, align 4
  %8 = alloca %"class.WasmEdge::ValType", align 4
  %9 = getelementptr inbounds %struct.WasmEdge_ValType, ptr %5, i32 0, i32 0
  store i64 %0, ptr %9, align 1
  %10 = getelementptr inbounds { i64, i32 }, ptr %7, i32 0, i32 0
  store i64 %1, ptr %10, align 4
  %11 = getelementptr inbounds { i64, i32 }, ptr %7, i32 0, i32 1
  store i32 %2, ptr %11, align 4
  call void @llvm.memcpy.p0.p0.i64(ptr align 4 %6, ptr align 4 %7, i64 12, i1 false)
  %12 = call i64 @_ZN12_GLOBAL__N_110genValTypeERK16WasmEdge_ValType(ptr noundef nonnull align 1 dereferenceable(8) %5) #18
  %13 = getelementptr inbounds %"class.WasmEdge::ValType", ptr %8, i32 0, i32 0
  %14 = getelementptr inbounds %union.anon, ptr %13, i32 0, i32 0
  store i64 %12, ptr %14, align 4
  %15 = call noundef zeroext i1 @_ZNK8WasmEdge7ValType9isRefTypeEv(ptr noundef nonnull align 4 dereferenceable(8) %8) #18
  br i1 %15, label %17, label %16

16:                                               ; preds = %3
  store ptr null, ptr %4, align 8
  br label %33

17:                                               ; preds = %3
  %18 = getelementptr inbounds %struct.WasmEdge_Limit, ptr %6, i32 0, i32 0
  %19 = load i8, ptr %18, align 4
  %20 = trunc i8 %19 to i1
  br i1 %20, label %21, label %28

21:                                               ; preds = %17
  %22 = call noalias noundef nonnull ptr @_Znwm(i64 noundef 20) #21
  %23 = getelementptr inbounds %struct.WasmEdge_Limit, ptr %6, i32 0, i32 2
  %24 = load i32, ptr %23, align 4
  %25 = getelementptr inbounds %struct.WasmEdge_Limit, ptr %6, i32 0, i32 3
  %26 = load i32, ptr %25, align 4
  call void @_ZN8WasmEdge3AST9TableTypeC2ERKNS_7ValTypeEjj(ptr noundef nonnull align 4 dereferenceable(20) %22, ptr noundef nonnull align 4 dereferenceable(8) %8, i32 noundef %24, i32 noundef %26) #18
  %27 = call noundef ptr @_ZN12_GLOBAL__N_112toTabTypeCxtEPN8WasmEdge3AST9TableTypeE(ptr noundef %22) #18
  store ptr %27, ptr %4, align 8
  br label %33

28:                                               ; preds = %17
  %29 = call noalias noundef nonnull ptr @_Znwm(i64 noundef 20) #21
  %30 = getelementptr inbounds %struct.WasmEdge_Limit, ptr %6, i32 0, i32 2
  %31 = load i32, ptr %30, align 4
  call void @_ZN8WasmEdge3AST9TableTypeC2ERKNS_7ValTypeEj(ptr noundef nonnull align 4 dereferenceable(20) %29, ptr noundef nonnull align 4 dereferenceable(8) %8, i32 noundef %31) #18
  %32 = call noundef ptr @_ZN12_GLOBAL__N_112toTabTypeCxtEPN8WasmEdge3AST9TableTypeE(ptr noundef %29) #18
  store ptr %32, ptr %4, align 8
  br label %33

33:                                               ; preds = %28, %21, %16
  %34 = load ptr, ptr %4, align 8
  ret ptr %34
}