; Function Attrs: mustprogress uwtable
define noalias noundef ptr @WasmEdge_TableTypeCreate(i64 %0, i64 %1, i32 %2) local_unnamed_addr #1 personality ptr @__gxx_personality_v0 {
  %.sroa.23.0.extract.shift = lshr i64 %1, 32
  %.sroa.23.0.extract.trunc = trunc nuw i64 %.sroa.23.0.extract.shift to i32
  %.sroa.3.0.extract.shift = lshr i64 %0, 16
  %.sroa.3.0.extract.trunc = trunc i64 %.sroa.3.0.extract.shift to i8
  %.off.i = add i8 %.sroa.3.0.extract.trunc, -99
  %switch.i = icmp ult i8 %.off.i, 2
  br i1 %switch.i, label %4, label %14

4:                                                ; preds = %3
  %5 = trunc i64 %1 to i1
  %6 = tail call noalias noundef nonnull dereferenceable(20) ptr @_Znwm(i64 noundef 20) #35
  store i64 %0, ptr %6, align 4
  %7 = getelementptr inbounds i8, ptr %6, i64 8
  br i1 %5, label %8, label %11

8:                                                ; preds = %4
  %9 = getelementptr inbounds i8, ptr %6, i64 12
  store i32 %.sroa.23.0.extract.trunc, ptr %9, align 4
  %10 = getelementptr inbounds i8, ptr %6, i64 16
  store i32 %2, ptr %10, align 4
  store i8 1, ptr %7, align 4
  br label %14

11:                                               ; preds = %4
  store i8 0, ptr %7, align 4
  %12 = getelementptr inbounds i8, ptr %6, i64 12
  store i32 %.sroa.23.0.extract.trunc, ptr %12, align 4
  %13 = getelementptr inbounds i8, ptr %6, i64 16
  store i32 %.sroa.23.0.extract.trunc, ptr %13, align 4
  br label %14

14:                                               ; preds = %3, %11, %8
  %.0 = phi ptr [ %6, %8 ], [ %6, %11 ], [ null, %3 ]
  ret ptr %.0
}